target datalayout = "e-m:e-p270:32:32-p271:32:32-p272:64:64-i64:64-i128:128-f80:128-n8:16:32:64-S128"
target triple = "x86_64-pc-linux-gnu"

%struct.pointf_s = type { double, double }
%struct.GVJ_s = type { ptr, ptr, ptr, ptr, ptr, ptr, i32, ptr, ptr, ptr, ptr, i64, i64, ptr, i32, %struct.gvplugin_active_render_s, %struct.gvplugin_active_device_s, %struct.gvplugin_active_loadimage_t, ptr, %struct.pointf_s, i8, ptr, i32, ptr, i8, ptr, i32, i32, i32, %struct.point, %struct.point, %struct.point, %struct.point, %struct.point, i32, %struct.boxf, %struct.pointf_s, %struct.boxf, %struct.boxf, %struct.pointf_s, %struct.pointf_s, double, i32, %struct.pointf_s, %struct.boxf, %struct.pointf_s, %struct.pointf_s, i32, i32, %struct.box, %struct.box, %struct.pointf_s, %struct.pointf_s, %struct.pointf_s, i8, i8, i8, i8, i8, i8, %struct.pointf_s, %struct.pointf_s, ptr, ptr, ptr, ptr, ptr, ptr, i64, ptr }
%struct.gvplugin_active_render_s = type { ptr, i32, ptr, ptr }
%struct.gvplugin_active_device_s = type { ptr, i32, ptr, ptr }
%struct.gvplugin_active_loadimage_t = type { ptr, i32, ptr }
%struct.point = type { i32, i32 }
%struct.boxf = type { %struct.pointf_s, %struct.pointf_s }
%struct.box = type { %struct.point, %struct.point }

@stderr = external global ptr, align 8
@.str.12 = private unnamed_addr constant [11 x i8] c"cairo: %s\0A\00", align 1

; Function Attrs: nounwind uwtable
define internal void @cairogen_end_page(ptr noundef %0) #0 {
  %2 = alloca ptr, align 8
  %3 = alloca ptr, align 8
  %4 = alloca ptr, align 8
  %5 = alloca i32, align 4
  store ptr %0, ptr %2, align 8, !tbaa !3
  call void @llvm.lifetime.start.p0(i64 8, ptr %3) #14
  %6 = load ptr, ptr %2, align 8, !tbaa !3
  %7 = getelementptr inbounds nuw %struct.GVJ_s, ptr %6, i32 0, i32 23
  %8 = load ptr, ptr %7, align 8, !tbaa !33
  store ptr %8, ptr %3, align 8, !tbaa !34
  call void @llvm.lifetime.start.p0(i64 8, ptr %4) #14
  call void @llvm.lifetime.start.p0(i64 4, ptr %5) #14
  %9 = load ptr, ptr %2, align 8, !tbaa !3
  %10 = getelementptr inbounds nuw %struct.GVJ_s, ptr %9, i32 0, i32 15
  %11 = getelementptr inbounds nuw %struct.gvplugin_active_render_s, ptr %10, i32 0, i32 1
  %12 = load i32, ptr %11, align 8, !tbaa !36
  switch i32 %12, label %37 [
    i32 1, label %13
    i32 2, label %19
    i32 3, label %19
    i32 4, label %19
    i32 0, label %36
  ]

13:                                               ; preds = %1
  %14 = load ptr, ptr %3, align 8, !tbaa !34
  %15 = call ptr @cairo_get_target(ptr noundef %14)
  store ptr %15, ptr %4, align 8, !tbaa !39
  %16 = load ptr, ptr %4, align 8, !tbaa !39
  %17 = load ptr, ptr %2, align 8, !tbaa !3
  %18 = call i32 @cairo_surface_write_to_png_stream(ptr noundef %16, ptr noundef @writer, ptr noundef %17)
  br label %53

19:                                               ; preds = %1, %1, %1
  %20 = load ptr, ptr %3, align 8, !tbaa !34
  call void @cairo_show_page(ptr noundef %20)
  %21 = load ptr, ptr %3, align 8, !tbaa !34
  %22 = call ptr @cairo_get_target(ptr noundef %21)
  %23 = call ptr @cairo_surface_reference(ptr noundef %22)
  store ptr %23, ptr %4, align 8, !tbaa !39
  %24 = load ptr, ptr %4, align 8, !tbaa !39
  call void @cairo_surface_finish(ptr noundef %24)
  %25 = load ptr, ptr %4, align 8, !tbaa !39
  %26 = call i32 @cairo_surface_status(ptr noundef %25)
  store i32 %26, ptr %5, align 4, !tbaa !42
  %27 = load ptr, ptr %4, align 8, !tbaa !39
  call void @cairo_surface_destroy(ptr noundef %27)
  %28 = load i32, ptr %5, align 4, !tbaa !42
  %29 = icmp ne i32 %28, 0
  br i1 %29, label %30, label %35

30:                                               ; preds = %19
  %31 = load ptr, ptr @stderr, align 8, !tbaa !45
  %32 = load i32, ptr %5, align 4, !tbaa !42
  %33 = call ptr @cairo_status_to_string(i32 noundef %32)
  %34 = call i32 (ptr, ptr, ...) @fprintf(ptr noundef %31, ptr noundef @.str.12, ptr noundef %33) #14
  br label %35

35:                                               ; preds = %30, %19
  br label %53

36:                                               ; preds = %1
  br label %37

37:                                               ; preds = %1, %36
  %38 = load ptr, ptr %3, align 8, !tbaa !34
  %39 = call ptr @cairo_get_target(ptr noundef %38)
  store ptr %39, ptr %4, align 8, !tbaa !39
  %40 = load ptr, ptr %4, align 8, !tbaa !39
  %41 = call i32 @cairo_image_surface_get_width(ptr noundef %40)
  %42 = icmp eq i32 %41, 0
  br i1 %42, label %47, label %43

43:                                               ; preds = %37
  %44 = load ptr, ptr %4, align 8, !tbaa !39
  %45 = call i32 @cairo_image_surface_get_height(ptr noundef %44)
  %46 = icmp eq i32 %45, 0
  br i1 %46, label %47, label %48

47:                                               ; preds = %43, %37
  br label %48

48:                                               ; preds = %47, %43
  %49 = load ptr, ptr %4, align 8, !tbaa !39
  %50 = call ptr @cairo_image_surface_get_data(ptr noundef %49)
  %51 = load ptr, ptr %2, align 8, !tbaa !3
  %52 = getelementptr inbounds nuw %struct.GVJ_s, ptr %51, i32 0, i32 25
  store ptr %50, ptr %52, align 8, !tbaa !63
  br label %53

53:                                               ; preds = %48, %35, %13
  call void @llvm.lifetime.end.p0(i64 4, ptr %5) #14
  call void @llvm.lifetime.end.p0(i64 8, ptr %4) #14
  call void @llvm.lifetime.end.p0(i64 8, ptr %3) #14
  ret void
}