; Function Attrs: nounwind uwtable
define internal void @cairogen_end_page(ptr noundef %0) #0 {
  %2 = getelementptr inbounds nuw i8, ptr %0, i64 256
  %3 = load ptr, ptr %2, align 8, !tbaa !32
  %4 = getelementptr inbounds nuw i8, ptr %0, i64 128
  %5 = load i32, ptr %4, align 8, !tbaa !33
  switch i32 %5, label %17 [
    i32 1, label %6
    i32 2, label %9
    i32 3, label %9
    i32 4, label %9
  ]

6:                                                ; preds = %1
  %7 = tail call ptr @cairo_get_target(ptr noundef %3) #20
  %8 = tail call i32 @cairo_surface_write_to_png_stream(ptr noundef %7, ptr noundef nonnull @writer, ptr noundef nonnull %0) #20
  br label %26

9:                                                ; preds = %1, %1, %1
  tail call void @cairo_show_page(ptr noundef %3) #20
  %10 = tail call ptr @cairo_get_target(ptr noundef %3) #20
  %11 = tail call ptr @cairo_surface_reference(ptr noundef %10) #20
  tail call void @cairo_surface_finish(ptr noundef %11) #20
  %12 = tail call i32 @cairo_surface_status(ptr noundef %11) #20
  tail call void @cairo_surface_destroy(ptr noundef %11) #20
  %.not = icmp eq i32 %12, 0
  br i1 %.not, label %26, label %13

13:                                               ; preds = %9
  %14 = load ptr, ptr @stderr, align 8, !tbaa !39
  %15 = tail call ptr @cairo_status_to_string(i32 noundef %12) #20
  %16 = tail call i32 (ptr, ptr, ...) @fprintf(ptr noundef %14, ptr noundef nonnull @.str.12, ptr noundef %15) #22
  br label %26

17:                                               ; preds = %1
  %18 = tail call ptr @cairo_get_target(ptr noundef %3) #20
  %19 = tail call i32 @cairo_image_surface_get_width(ptr noundef %18) #20
  %20 = icmp eq i32 %19, 0
  br i1 %20, label %23, label %21

21:                                               ; preds = %17
  %22 = tail call i32 @cairo_image_surface_get_height(ptr noundef %18) #20
  br label %23

23:                                               ; preds = %21, %17
  %24 = tail call ptr @cairo_image_surface_get_data(ptr noundef %18) #20
  %25 = getelementptr inbounds nuw i8, ptr %0, i64 272
  store ptr %24, ptr %25, align 8, !tbaa !55
  br label %26

26:                                               ; preds = %9, %13, %23, %6
  ret void
}